target datalayout = "e-m:e-p270:32:32-p271:32:32-p272:64:64-i64:64-i128:128-f80:128-n8:16:32:64-S128"
target triple = "x86_64-pc-linux-gnu"

%struct.tMPI_Thread_key_t = type { %struct.tMPI_Atomic, ptr }
%struct.tMPI_Atomic = type { i32, [60 x i8] }
%struct.tmpi_req_ = type { i32, ptr, ptr, ptr, i32, i32, i64, i32, ptr, ptr }
%struct.tmpi_comm_ = type { %struct.tmpi_group_, %struct.tMPI_Barrier_t, ptr, ptr, i32, ptr, ptr, ptr, ptr, %struct.tMPI_Thread_mutex_t, %struct.tMPI_Thread_cond_t, %struct.tMPI_Thread_cond_t, ptr, ptr, ptr, ptr, ptr, ptr, %struct.tMPI_Atomic }
%struct.tmpi_group_ = type { i32, ptr }
%struct.tMPI_Barrier_t = type { %struct.tMPI_Atomic, i32, %struct.tMPI_Atomic }
%struct.tMPI_Thread_mutex_t = type { %struct.tMPI_Atomic, ptr }
%struct.tMPI_Thread_cond_t = type { %struct.tMPI_Atomic, ptr }

@id_key = external global %struct.tMPI_Thread_key_t, align 8
@TMPI_COMM_WORLD = external global ptr, align 8

; Function Attrs: mustprogress uwtable
define noundef i32 @_Z9tMPI_SendPKviP14tmpi_datatype_iiP10tmpi_comm_(ptr noundef %0, i32 noundef %1, ptr noundef %2, i32 noundef %3, i32 noundef %4, ptr noundef %5) #0 {
  %7 = alloca i32, align 4
  %8 = alloca ptr, align 8
  %9 = alloca i32, align 4
  %10 = alloca ptr, align 8
  %11 = alloca i32, align 4
  %12 = alloca i32, align 4
  %13 = alloca ptr, align 8
  %14 = alloca ptr, align 8
  %15 = alloca ptr, align 8
  %16 = alloca ptr, align 8
  %17 = alloca %struct.tMPI_Thread_key_t, align 8
  %18 = alloca %struct.tmpi_req_, align 8
  store ptr %0, ptr %8, align 8
  store i32 %1, ptr %9, align 4
  store ptr %2, ptr %10, align 8
  store i32 %3, ptr %11, align 4
  store i32 %4, ptr %12, align 4
  store ptr %5, ptr %13, align 8
  call void @llvm.memcpy.p0.p0.i64(ptr align 8 %17, ptr align 8 @id_key, i64 72, i1 false)
  %19 = call noundef ptr @_Z23tMPI_Thread_getspecific17tMPI_Thread_key_t(ptr noundef byval(%struct.tMPI_Thread_key_t) align 8 %17)
  store ptr %19, ptr %16, align 8
  %20 = load ptr, ptr %13, align 8
  %21 = icmp ne ptr %20, null
  br i1 %21, label %25, label %22

22:                                               ; preds = %6
  %23 = load ptr, ptr @TMPI_COMM_WORLD, align 8
  %24 = call noundef i32 @_Z10tMPI_ErrorP10tmpi_comm_i(ptr noundef %23, i32 noundef 6)
  store i32 %24, ptr %7, align 4
  br label %56

25:                                               ; preds = %6
  %26 = load ptr, ptr %13, align 8
  %27 = getelementptr inbounds %struct.tmpi_comm_, ptr %26, i32 0, i32 0
  %28 = getelementptr inbounds %struct.tmpi_group_, ptr %27, i32 0, i32 1
  %29 = load ptr, ptr %28, align 8
  %30 = load i32, ptr %11, align 4
  %31 = sext i32 %30 to i64
  %32 = getelementptr inbounds ptr, ptr %29, i64 %31
  %33 = load ptr, ptr %32, align 8
  store ptr %33, ptr %15, align 8
  %34 = load ptr, ptr %15, align 8
  %35 = icmp ne ptr %34, null
  br i1 %35, label %39, label %36

36:                                               ; preds = %25
  %37 = load ptr, ptr %13, align 8
  %38 = call noundef i32 @_Z10tMPI_ErrorP10tmpi_comm_i(ptr noundef %37, i32 noundef 15)
  store i32 %38, ptr %7, align 4
  br label %56

39:                                               ; preds = %25
  %40 = load ptr, ptr %16, align 8
  %41 = load ptr, ptr %13, align 8
  %42 = load ptr, ptr %15, align 8
  %43 = load ptr, ptr %8, align 8
  %44 = load i32, ptr %9, align 4
  %45 = load ptr, ptr %10, align 8
  %46 = load i32, ptr %12, align 4
  %47 = call noundef ptr @_Z14tMPI_Post_sendP11tmpi_threadP10tmpi_comm_S0_PviP14tmpi_datatype_ii(ptr noundef %40, ptr noundef %41, ptr noundef %42, ptr noundef %43, i32 noundef %44, ptr noundef %45, i32 noundef %46, i32 noundef 0)
  store ptr %47, ptr %14, align 8
  %48 = load ptr, ptr %14, align 8
  %49 = icmp eq ptr %48, null
  br i1 %49, label %50, label %51

50:                                               ; preds = %39
  store i32 20, ptr %7, align 4
  br label %56

51:                                               ; preds = %39
  %52 = load ptr, ptr %14, align 8
  call void @_Z13tMPI_Req_initP9tmpi_req_P8envelope(ptr noundef %18, ptr noundef %52)
  %53 = load ptr, ptr %16, align 8
  call void @_Z16tMPI_Wait_singleP11tmpi_threadP9tmpi_req_(ptr noundef %53, ptr noundef %18)
  %54 = getelementptr inbounds %struct.tmpi_req_, ptr %18, i32 0, i32 5
  %55 = load i32, ptr %54, align 4
  store i32 %55, ptr %7, align 4
  br label %56

56:                                               ; preds = %51, %50, %36, %22
  %57 = load i32, ptr %7, align 4
  ret i32 %57
}