; Function Attrs: mustprogress uwtable
define noundef i32 @_Z9tMPI_SendPKviP14tmpi_datatype_iiP10tmpi_comm_(ptr noundef %0, i32 noundef %1, ptr noundef %2, i32 noundef %3, i32 noundef %4, ptr noundef %5) local_unnamed_addr #0 {
  %7 = alloca %struct.tmpi_req_, align 8
  %8 = tail call noundef ptr @_Z23tMPI_Thread_getspecific17tMPI_Thread_key_t(ptr noundef nonnull byval(%struct.tMPI_Thread_key_t) align 8 @id_key)
  %.not = icmp eq ptr %5, null
  br i1 %.not, label %9, label %12

9:                                                ; preds = %6
  %10 = load ptr, ptr @TMPI_COMM_WORLD, align 8
  %11 = tail call noundef i32 @_Z10tMPI_ErrorP10tmpi_comm_i(ptr noundef %10, i32 noundef 6)
  br label %26

12:                                               ; preds = %6
  %13 = getelementptr inbounds i8, ptr %5, i64 8
  %14 = load ptr, ptr %13, align 8
  %15 = sext i32 %3 to i64
  %16 = getelementptr inbounds ptr, ptr %14, i64 %15
  %17 = load ptr, ptr %16, align 8
  %.not18 = icmp eq ptr %17, null
  br i1 %.not18, label %18, label %20

18:                                               ; preds = %12
  %19 = tail call noundef i32 @_Z10tMPI_ErrorP10tmpi_comm_i(ptr noundef nonnull %5, i32 noundef 15)
  br label %26

20:                                               ; preds = %12
  %21 = tail call noundef ptr @_Z14tMPI_Post_sendP11tmpi_threadP10tmpi_comm_S0_PviP14tmpi_datatype_ii(ptr noundef %8, ptr noundef nonnull %5, ptr noundef nonnull %17, ptr noundef %0, i32 noundef %1, ptr noundef %2, i32 noundef %4, i32 noundef 0)
  %22 = icmp eq ptr %21, null
  br i1 %22, label %26, label %23

23:                                               ; preds = %20
  call void @_Z13tMPI_Req_initP9tmpi_req_P8envelope(ptr noundef nonnull %7, ptr noundef nonnull %21)
  call void @_Z16tMPI_Wait_singleP11tmpi_threadP9tmpi_req_(ptr noundef %8, ptr noundef nonnull %7)
  %24 = getelementptr inbounds i8, ptr %7, i64 36
  %25 = load i32, ptr %24, align 4
  br label %26

26:                                               ; preds = %20, %23, %18, %9
  %.0 = phi i32 [ %25, %23 ], [ %19, %18 ], [ %11, %9 ], [ 20, %20 ]
  ret i32 %.0
}